target datalayout = "e-m:e-p270:32:32-p271:32:32-p272:64:64-i64:64-i128:128-f80:128-n8:16:32:64-S128"
target triple = "x86_64-unknown-linux-gnu"

%struct.redisAsyncContext = type { %struct.redisContext, i32, ptr, ptr, ptr, %struct.anon.2, ptr, ptr, ptr, %struct.redisCallbackList, ptr, i64, %struct.anon.3, ptr }
%struct.redisContext = type { ptr, i32, [128 x i8], i32, i32, ptr, ptr, i32, ptr, ptr, %struct.anon.0, %struct.anon.1, ptr, i64, ptr, ptr, ptr, ptr }
%struct.anon.0 = type { ptr, ptr, i32 }
%struct.anon.1 = type { ptr }
%struct.anon.2 = type { ptr, ptr, ptr, ptr, ptr, ptr, ptr }
%struct.redisCallbackList = type { ptr, ptr }
%struct.anon.3 = type { %struct.redisCallbackList, ptr, ptr, i32 }
%struct.timeval = type { i64, i64 }

; Function Attrs: nounwind uwtable
define internal void @refreshTimeout(ptr noundef %ctx) #0 {
entry:
  %ctx.addr = alloca ptr, align 8
  store ptr %ctx, ptr %ctx.addr, align 8
  %0 = load ptr, ptr %ctx.addr, align 8
  %c = getelementptr inbounds %struct.redisAsyncContext, ptr %0, i32 0, i32 0
  %flags = getelementptr inbounds %struct.redisContext, ptr %c, i32 0, i32 4
  %1 = load i32, ptr %flags, align 8
  %and = and i32 %1, 2
  %tobool = icmp ne i32 %and, 0
  br i1 %tobool, label %if.then, label %if.else

if.then:                                          ; preds = %entry
  %2 = load ptr, ptr %ctx.addr, align 8
  %ev = getelementptr inbounds %struct.redisAsyncContext, ptr %2, i32 0, i32 5
  %scheduleTimer = getelementptr inbounds %struct.anon.2, ptr %ev, i32 0, i32 6
  %3 = load ptr, ptr %scheduleTimer, align 8
  %tobool1 = icmp ne ptr %3, null
  br i1 %tobool1, label %land.lhs.true, label %if.end

land.lhs.true:                                    ; preds = %if.then
  %4 = load ptr, ptr %ctx.addr, align 8
  %c2 = getelementptr inbounds %struct.redisAsyncContext, ptr %4, i32 0, i32 0
  %command_timeout = getelementptr inbounds %struct.redisContext, ptr %c2, i32 0, i32 9
  %5 = load ptr, ptr %command_timeout, align 8
  %tobool3 = icmp ne ptr %5, null
  br i1 %tobool3, label %land.lhs.true4, label %if.end

land.lhs.true4:                                   ; preds = %land.lhs.true
  %6 = load ptr, ptr %ctx.addr, align 8
  %c5 = getelementptr inbounds %struct.redisAsyncContext, ptr %6, i32 0, i32 0
  %command_timeout6 = getelementptr inbounds %struct.redisContext, ptr %c5, i32 0, i32 9
  %7 = load ptr, ptr %command_timeout6, align 8
  %tv_sec = getelementptr inbounds %struct.timeval, ptr %7, i32 0, i32 0
  %8 = load i64, ptr %tv_sec, align 8
  %tobool7 = icmp ne i64 %8, 0
  br i1 %tobool7, label %if.then11, label %lor.lhs.false

lor.lhs.false:                                    ; preds = %land.lhs.true4
  %9 = load ptr, ptr %ctx.addr, align 8
  %c8 = getelementptr inbounds %struct.redisAsyncContext, ptr %9, i32 0, i32 0
  %command_timeout9 = getelementptr inbounds %struct.redisContext, ptr %c8, i32 0, i32 9
  %10 = load ptr, ptr %command_timeout9, align 8
  %tv_usec = getelementptr inbounds %struct.timeval, ptr %10, i32 0, i32 1
  %11 = load i64, ptr %tv_usec, align 8
  %tobool10 = icmp ne i64 %11, 0
  br i1 %tobool10, label %if.then11, label %if.end

if.then11:                                        ; preds = %lor.lhs.false, %land.lhs.true4
  %12 = load ptr, ptr %ctx.addr, align 8
  %ev12 = getelementptr inbounds %struct.redisAsyncContext, ptr %12, i32 0, i32 5
  %scheduleTimer13 = getelementptr inbounds %struct.anon.2, ptr %ev12, i32 0, i32 6
  %13 = load ptr, ptr %scheduleTimer13, align 8
  %14 = load ptr, ptr %ctx.addr, align 8
  %ev14 = getelementptr inbounds %struct.redisAsyncContext, ptr %14, i32 0, i32 5
  %data = getelementptr inbounds %struct.anon.2, ptr %ev14, i32 0, i32 0
  %15 = load ptr, ptr %data, align 8
  %16 = load ptr, ptr %ctx.addr, align 8
  %c15 = getelementptr inbounds %struct.redisAsyncContext, ptr %16, i32 0, i32 0
  %command_timeout16 = getelementptr inbounds %struct.redisContext, ptr %c15, i32 0, i32 9
  %17 = load ptr, ptr %command_timeout16, align 8
  %18 = getelementptr inbounds { i64, i64 }, ptr %17, i32 0, i32 0
  %19 = load i64, ptr %18, align 8
  %20 = getelementptr inbounds { i64, i64 }, ptr %17, i32 0, i32 1
  %21 = load i64, ptr %20, align 8
  call void %13(ptr noundef %15, i64 %19, i64 %21)
  br label %if.end

if.end:                                           ; preds = %if.then11, %lor.lhs.false, %land.lhs.true, %if.then
  br label %if.end41

if.else:                                          ; preds = %entry
  %22 = load ptr, ptr %ctx.addr, align 8
  %ev17 = getelementptr inbounds %struct.redisAsyncContext, ptr %22, i32 0, i32 5
  %scheduleTimer18 = getelementptr inbounds %struct.anon.2, ptr %ev17, i32 0, i32 6
  %23 = load ptr, ptr %scheduleTimer18, align 8
  %tobool19 = icmp ne ptr %23, null
  br i1 %tobool19, label %land.lhs.true20, label %if.end40

land.lhs.true20:                                  ; preds = %if.else
  %24 = load ptr, ptr %ctx.addr, align 8
  %c21 = getelementptr inbounds %struct.redisAsyncContext, ptr %24, i32 0, i32 0
  %connect_timeout = getelementptr inbounds %struct.redisContext, ptr %c21, i32 0, i32 8
  %25 = load ptr, ptr %connect_timeout, align 8
  %tobool22 = icmp ne ptr %25, null
  br i1 %tobool22, label %land.lhs.true23, label %if.end40

land.lhs.true23:                                  ; preds = %land.lhs.true20
  %26 = load ptr, ptr %ctx.addr, align 8
  %c24 = getelementptr inbounds %struct.redisAsyncContext, ptr %26, i32 0, i32 0
  %connect_timeout25 = getelementptr inbounds %struct.redisContext, ptr %c24, i32 0, i32 8
  %27 = load ptr, ptr %connect_timeout25, align 8
  %tv_sec26 = getelementptr inbounds %struct.timeval, ptr %27, i32 0, i32 0
  %28 = load i64, ptr %tv_sec26, align 8
  %tobool27 = icmp ne i64 %28, 0
  br i1 %tobool27, label %if.then33, label %lor.lhs.false28

lor.lhs.false28:                                  ; preds = %land.lhs.true23
  %29 = load ptr, ptr %ctx.addr, align 8
  %c29 = getelementptr inbounds %struct.redisAsyncContext, ptr %29, i32 0, i32 0
  %connect_timeout30 = getelementptr inbounds %struct.redisContext, ptr %c29, i32 0, i32 8
  %30 = load ptr, ptr %connect_timeout30, align 8
  %tv_usec31 = getelementptr inbounds %struct.timeval, ptr %30, i32 0, i32 1
  %31 = load i64, ptr %tv_usec31, align 8
  %tobool32 = icmp ne i64 %31, 0
  br i1 %tobool32, label %if.then33, label %if.end40

if.then33:                                        ; preds = %lor.lhs.false28, %land.lhs.true23
  %32 = load ptr, ptr %ctx.addr, align 8
  %ev34 = getelementptr inbounds %struct.redisAsyncContext, ptr %32, i32 0, i32 5
  %scheduleTimer35 = getelementptr inbounds %struct.anon.2, ptr %ev34, i32 0, i32 6
  %33 = load ptr, ptr %scheduleTimer35, align 8
  %34 = load ptr, ptr %ctx.addr, align 8
  %ev36 = getelementptr inbounds %struct.redisAsyncContext, ptr %34, i32 0, i32 5
  %data37 = getelementptr inbounds %struct.anon.2, ptr %ev36, i32 0, i32 0
  %35 = load ptr, ptr %data37, align 8
  %36 = load ptr, ptr %ctx.addr, align 8
  %c38 = getelementptr inbounds %struct.redisAsyncContext, ptr %36, i32 0, i32 0
  %connect_timeout39 = getelementptr inbounds %struct.redisContext, ptr %c38, i32 0, i32 8
  %37 = load ptr, ptr %connect_timeout39, align 8
  %38 = getelementptr inbounds { i64, i64 }, ptr %37, i32 0, i32 0
  %39 = load i64, ptr %38, align 8
  %40 = getelementptr inbounds { i64, i64 }, ptr %37, i32 0, i32 1
  %41 = load i64, ptr %40, align 8
  call void %33(ptr noundef %35, i64 %39, i64 %41)
  br label %if.end40

if.end40:                                         ; preds = %if.then33, %lor.lhs.false28, %land.lhs.true20, %if.else
  br label %if.end41

if.end41:                                         ; preds = %if.end40, %if.end
  ret void
}

; Function Attrs: nounwind uwtable
define internal i32 @redisAsyncSetConnectCallbackImpl(ptr noundef %ac, ptr noundef %fn, ptr noundef %fn_nc) #0 {
entry:
  %retval = alloca i32, align 4
  %ac.addr = alloca ptr, align 8
  %fn.addr = alloca ptr, align 8
  %fn_nc.addr = alloca ptr, align 8
  store ptr %ac, ptr %ac.addr, align 8
  store ptr %fn, ptr %fn.addr, align 8
  store ptr %fn_nc, ptr %fn_nc.addr, align 8
  %0 = load ptr, ptr %ac.addr, align 8
  %onConnect = getelementptr inbounds %struct.redisAsyncContext, ptr %0, i32 0, i32 7
  %1 = load ptr, ptr %onConnect, align 8
  %tobool = icmp ne ptr %1, null
  br i1 %tobool, label %if.then, label %lor.lhs.false

lor.lhs.false:                                    ; preds = %entry
  %2 = load ptr, ptr %ac.addr, align 8
  %onConnectNC = getelementptr inbounds %struct.redisAsyncContext, ptr %2, i32 0, i32 8
  %3 = load ptr, ptr %onConnectNC, align 8
  %tobool1 = icmp ne ptr %3, null
  br i1 %tobool1, label %if.then, label %if.end

if.then:                                          ; preds = %lor.lhs.false, %entry
  store i32 -1, ptr %retval, align 4
  br label %return

if.end:                                           ; preds = %lor.lhs.false
  %4 = load ptr, ptr %fn.addr, align 8
  %tobool2 = icmp ne ptr %4, null
  br i1 %tobool2, label %if.then3, label %if.else

if.then3:                                         ; preds = %if.end
  %5 = load ptr, ptr %fn.addr, align 8
  %6 = load ptr, ptr %ac.addr, align 8
  %onConnect4 = getelementptr inbounds %struct.redisAsyncContext, ptr %6, i32 0, i32 7
  store ptr %5, ptr %onConnect4, align 8
  br label %if.end9

if.else:                                          ; preds = %if.end
  %7 = load ptr, ptr %fn_nc.addr, align 8
  %tobool5 = icmp ne ptr %7, null
  br i1 %tobool5, label %if.then6, label %if.end8

if.then6:                                         ; preds = %if.else
  %8 = load ptr, ptr %fn_nc.addr, align 8
  %9 = load ptr, ptr %ac.addr, align 8
  %onConnectNC7 = getelementptr inbounds %struct.redisAsyncContext, ptr %9, i32 0, i32 8
  store ptr %8, ptr %onConnectNC7, align 8
  br label %if.end8

if.end8:                                          ; preds = %if.then6, %if.else
  br label %if.end9

if.end9:                                          ; preds = %if.end8, %if.then3
  br label %do.body

do.body:                                          ; preds = %if.end9
  %10 = load ptr, ptr %ac.addr, align 8
  call void @refreshTimeout(ptr noundef %10)
  %11 = load ptr, ptr %ac.addr, align 8
  %ev = getelementptr inbounds %struct.redisAsyncContext, ptr %11, i32 0, i32 5
  %addWrite = getelementptr inbounds %struct.anon.2, ptr %ev, i32 0, i32 3
  %12 = load ptr, ptr %addWrite, align 8
  %tobool10 = icmp ne ptr %12, null
  br i1 %tobool10, label %if.then11, label %if.end15

if.then11:                                        ; preds = %do.body
  %13 = load ptr, ptr %ac.addr, align 8
  %ev12 = getelementptr inbounds %struct.redisAsyncContext, ptr %13, i32 0, i32 5
  %addWrite13 = getelementptr inbounds %struct.anon.2, ptr %ev12, i32 0, i32 3
  %14 = load ptr, ptr %addWrite13, align 8
  %15 = load ptr, ptr %ac.addr, align 8
  %ev14 = getelementptr inbounds %struct.redisAsyncContext, ptr %15, i32 0, i32 5
  %data = getelementptr inbounds %struct.anon.2, ptr %ev14, i32 0, i32 0
  %16 = load ptr, ptr %data, align 8
  call void %14(ptr noundef %16)
  br label %if.end15

if.end15:                                         ; preds = %if.then11, %do.body
  br label %do.end

do.end:                                           ; preds = %if.end15
  store i32 0, ptr %retval, align 4
  br label %return

return:                                           ; preds = %do.end, %if.then
  %17 = load i32, ptr %retval, align 4
  ret i32 %17
}

; Function Attrs: nounwind uwtable
define i32 @redisAsyncSetConnectCallback(ptr noundef %ac, ptr noundef %fn) #0 {
entry:
  %ac.addr = alloca ptr, align 8
  %fn.addr = alloca ptr, align 8
  store ptr %ac, ptr %ac.addr, align 8
  store ptr %fn, ptr %fn.addr, align 8
  %0 = load ptr, ptr %ac.addr, align 8
  %1 = load ptr, ptr %fn.addr, align 8
  %call = call i32 @redisAsyncSetConnectCallbackImpl(ptr noundef %0, ptr noundef %1, ptr noundef null)
  ret i32 %call
}